target datalayout = "e-m:e-p270:32:32-p271:32:32-p272:64:64-i64:64-i128:128-f80:128-n8:16:32:64-S128"
target triple = "x86_64-pc-linux-gnu"

%class.ZMarkStackSpace = type <{ %class.ZLock, i64, i64, i64, i8, [7 x i8] }>
%class.ZLock = type { %class.PlatformMutex }
%class.PlatformMutex = type { %union.pthread_mutex_t }
%union.pthread_mutex_t = type { %struct.__pthread_mutex_s }
%struct.__pthread_mutex_s = type { i32, i32, i32, i32, i32, i16, i16, %struct.__pthread_internal_list }
%struct.__pthread_internal_list = type { ptr, ptr }
%class.ZMarkStackAllocator = type <{ [64 x i8], %class.ZMarkStackSpace, [56 x i8], %class.ZStackList, i8, [63 x i8] }>
%class.ZStackList = type { i64, ptr, [48 x i8] }

@_ZN15ZMarkStackSpaceC1Ev = hidden unnamed_addr alias void (ptr), ptr @_ZN15ZMarkStackSpaceC2Ev

; Function Attrs: mustprogress nounwind uwtable
define linkonce_odr hidden noundef ptr @_ZNK10ZStackListI6ZStackIPS0_I15ZMarkStackEntryLm254EELm15EEE24encode_versioned_pointerEPKS4_j(ptr noundef nonnull align 64 dereferenceable(16) %0, ptr noundef %1, i32 noundef %2) #1 comdat align 2 {
  %4 = alloca ptr, align 8
  %5 = alloca ptr, align 8
  %6 = alloca i32, align 4
  %7 = alloca i64, align 8
  store ptr %0, ptr %4, align 8
  store ptr %1, ptr %5, align 8
  store i32 %2, ptr %6, align 4
  %8 = load ptr, ptr %4, align 8
  %9 = load ptr, ptr %5, align 8
  %10 = icmp eq ptr %9, null
  br i1 %10, label %11, label %12

11:                                               ; preds = %3
  store i64 4294967295, ptr %7, align 8
  br label %19

12:                                               ; preds = %3
  %13 = load ptr, ptr %5, align 8
  %14 = ptrtoint ptr %13 to i64
  %15 = getelementptr inbounds %class.ZStackList, ptr %8, i32 0, i32 0
  %16 = load i64, ptr %15, align 64
  %17 = sub i64 %14, %16
  %18 = lshr i64 %17, 11
  store i64 %18, ptr %7, align 8
  br label %19

19:                                               ; preds = %12, %11
  %20 = load i64, ptr %7, align 8
  %21 = shl i64 %20, 32
  %22 = load i32, ptr %6, align 4
  %23 = zext i32 %22 to i64
  %24 = or i64 %21, %23
  %25 = inttoptr i64 %24 to ptr
  ret ptr %25
}

; Function Attrs: mustprogress nounwind uwtable
define linkonce_odr hidden void @_ZN10ZStackListI6ZStackIPS0_I15ZMarkStackEntryLm254EELm15EEEC2Em(ptr noundef nonnull align 64 dereferenceable(16) %0, i64 noundef %1) unnamed_addr #1 comdat align 2 {
  %3 = alloca ptr, align 8
  %4 = alloca i64, align 8
  store ptr %0, ptr %3, align 8
  store i64 %1, ptr %4, align 8
  %5 = load ptr, ptr %3, align 8
  %6 = getelementptr inbounds %class.ZStackList, ptr %5, i32 0, i32 0
  %7 = load i64, ptr %4, align 8
  store i64 %7, ptr %6, align 64
  %8 = getelementptr inbounds %class.ZStackList, ptr %5, i32 0, i32 1
  %9 = call noundef ptr @_ZNK10ZStackListI6ZStackIPS0_I15ZMarkStackEntryLm254EELm15EEE24encode_versioned_pointerEPKS4_j(ptr noundef nonnull align 64 dereferenceable(16) %5, ptr noundef null, i32 noundef 0)
  store volatile ptr %9, ptr %8, align 8
  ret void
}

; Function Attrs: mustprogress nounwind uwtable
define hidden noundef i64 @_ZNK15ZMarkStackSpace5startEv(ptr noundef nonnull align 8 dereferenceable(65) %0) #1 align 2 {
  %2 = alloca ptr, align 8
  store ptr %0, ptr %2, align 8
  %3 = load ptr, ptr %2, align 8
  %4 = getelementptr inbounds %class.ZMarkStackSpace, ptr %3, i32 0, i32 1
  %5 = load i64, ptr %4, align 8
  ret i64 %5
}

; Function Attrs: mustprogress nounwind uwtable
define hidden void @_ZN19ZMarkStackAllocatorC2Ev(ptr noundef nonnull align 64 dereferenceable(257) %0) unnamed_addr #1 align 2 {
  %2 = alloca ptr, align 8
  store ptr %0, ptr %2, align 8
  %3 = load ptr, ptr %2, align 8
  %4 = getelementptr inbounds %class.ZMarkStackAllocator, ptr %3, i32 0, i32 1
  call void @_ZN15ZMarkStackSpaceC1Ev(ptr noundef nonnull align 8 dereferenceable(65) %4)
  %5 = getelementptr inbounds %class.ZMarkStackAllocator, ptr %3, i32 0, i32 3
  %6 = getelementptr inbounds %class.ZMarkStackAllocator, ptr %3, i32 0, i32 1
  %7 = call noundef i64 @_ZNK15ZMarkStackSpace5startEv(ptr noundef nonnull align 8 dereferenceable(65) %6)
  call void @_ZN10ZStackListI6ZStackIPS0_I15ZMarkStackEntryLm254EELm15EEEC2Em(ptr noundef nonnull align 64 dereferenceable(16) %5, i64 noundef %7)
  %8 = getelementptr inbounds %class.ZMarkStackAllocator, ptr %3, i32 0, i32 4
  store volatile i8 0, ptr %8, align 64
  ret void
}