; Function Attrs: mustprogress nounwind uwtable
define hidden void @_ZN19ZMarkStackAllocatorC2Ev(ptr noundef nonnull align 64 dereferenceable(257) %0) unnamed_addr #0 align 2 {
  %2 = getelementptr inbounds i8, ptr %0, i64 64
  tail call void @_ZN15ZMarkStackSpaceC2Ev(ptr noundef nonnull align 8 dereferenceable(65) %2)
  %3 = getelementptr inbounds i8, ptr %0, i64 192
  %4 = getelementptr inbounds i8, ptr %0, i64 104
  %5 = load i64, ptr %4, align 8
  store i64 %5, ptr %3, align 64
  %6 = getelementptr inbounds i8, ptr %0, i64 200
  store volatile ptr inttoptr (i64 -4294967296 to ptr), ptr %6, align 8
  %7 = getelementptr inbounds i8, ptr %0, i64 256
  store volatile i8 0, ptr %7, align 64
  ret void
}